target datalayout = "e-m:e-p270:32:32-p271:32:32-p272:64:64-i64:64-i128:128-f80:128-n8:16:32:64-S128"
target triple = "x86_64-unknown-linux-gnu"

%"class.sat::literal" = type { i32 }
%"class.sat::aig_cuts" = type { %class.random_gen, %"struct.sat::aig_cuts::config", %class.vector, %class.svector, %class.region, %"class.sat::cut_set", %"class.sat::cut_set", %"class.sat::cut_set", %class.vector.1, %class.svector.2, %class.svector.2, i32, i32, %class.svector.4, i32, %"class.std::function", %"class.std::function", %"class.std::function.6", %"class.std::function.6", %class.svector, [6 x ptr], [6 x i64], [6 x %"class.sat::literal"] }
%class.random_gen = type { i32 }
%"struct.sat::aig_cuts::config" = type <{ i32, i32, i32, i8, [3 x i8] }>
%class.vector = type { ptr }
%class.region = type { ptr, ptr, ptr, ptr, ptr }
%"class.sat::cut_set" = type { i32, ptr, i32, i32, ptr }
%class.vector.1 = type { ptr }
%class.svector.2 = type { %class.vector.3 }
%class.vector.3 = type { ptr }
%class.svector.4 = type { %class.vector.5 }
%class.vector.5 = type { ptr }
%"class.std::function" = type { %"class.std::_Function_base", ptr }
%"class.std::_Function_base" = type { %"union.std::_Any_data", ptr }
%"union.std::_Any_data" = type { %"union.std::_Nocopy_types" }
%"union.std::_Nocopy_types" = type { { i64, i64 } }
%"class.std::function.6" = type { %"class.std::_Function_base", ptr }
%class.svector = type { %class.vector.0 }
%class.vector.0 = type { ptr }
%"class.sat::aig_cuts::to_root" = type { %class.svector }
%"class.sat::aig_cuts::node" = type { i8, i32, i64, i32, i32 }

; Function Attrs: mustprogress nounwind uwtable
define linkonce_odr hidden void @_ZN9__gnu_cxx5__ops16__iter_less_iterEv() #4 comdat {
entry:
  ret void
}

; Function Attrs: mustprogress nounwind uwtable
define linkonce_odr hidden void @_ZN3sat7literalC2Ejb(ptr noundef nonnull align 4 dereferenceable(4) %this, i32 noundef %v, i1 noundef zeroext %_sign) unnamed_addr #4 comdat align 2 {
entry:
  %this.addr = alloca ptr, align 8
  %v.addr = alloca i32, align 4
  %_sign.addr = alloca i8, align 1
  store ptr %this, ptr %this.addr, align 8
  store i32 %v, ptr %v.addr, align 4
  %frombool = zext i1 %_sign to i8
  store i8 %frombool, ptr %_sign.addr, align 1
  %this1 = load ptr, ptr %this.addr, align 8
  %m_val = getelementptr inbounds %"class.sat::literal", ptr %this1, i32 0, i32 0
  %0 = load i32, ptr %v.addr, align 4
  %shl = shl i32 %0, 1
  %1 = load i8, ptr %_sign.addr, align 1
  %tobool = trunc i8 %1 to i1
  %conv = zext i1 %tobool to i32
  %add = add i32 %shl, %conv
  store i32 %add, ptr %m_val, align 4
  ret void
}

; Function Attrs: mustprogress nounwind uwtable
define linkonce_odr hidden noundef nonnull align 4 dereferenceable(4) ptr @_ZNK6vectorIN3sat7literalELb0EjEixEj(ptr noundef nonnull align 8 dereferenceable(8) %this, i32 noundef %idx) #4 comdat align 2 {
entry:
  %this.addr = alloca ptr, align 8
  %idx.addr = alloca i32, align 4
  store ptr %this, ptr %this.addr, align 8
  store i32 %idx, ptr %idx.addr, align 4
  %this1 = load ptr, ptr %this.addr, align 8
  %m_data = getelementptr inbounds %class.vector.0, ptr %this1, i32 0, i32 0
  %0 = load ptr, ptr %m_data, align 8
  %1 = load i32, ptr %idx.addr, align 4
  %idxprom = zext i32 %1 to i64
  %arrayidx = getelementptr inbounds %"class.sat::literal", ptr %0, i64 %idxprom
  ret ptr %arrayidx
}

; Function Attrs: mustprogress nounwind uwtable
define linkonce_odr hidden noundef i32 @_ZNK6vectorIN3sat7literalELb0EjE4sizeEv(ptr noundef nonnull align 8 dereferenceable(8) %this) #4 comdat align 2 {
entry:
  %retval = alloca i32, align 4
  %this.addr = alloca ptr, align 8
  store ptr %this, ptr %this.addr, align 8
  %this1 = load ptr, ptr %this.addr, align 8
  %m_data = getelementptr inbounds %class.vector.0, ptr %this1, i32 0, i32 0
  %0 = load ptr, ptr %m_data, align 8
  %cmp = icmp eq ptr %0, null
  br i1 %cmp, label %if.then, label %if.end

if.then:                                          ; preds = %entry
  store i32 0, ptr %retval, align 4
  br label %return

if.end:                                           ; preds = %entry
  %m_data2 = getelementptr inbounds %class.vector.0, ptr %this1, i32 0, i32 0
  %1 = load ptr, ptr %m_data2, align 8
  %arrayidx = getelementptr inbounds i32, ptr %1, i64 -1
  %2 = load i32, ptr %arrayidx, align 4
  store i32 %2, ptr %retval, align 4
  br label %return

return:                                           ; preds = %if.end, %if.then
  %3 = load i32, ptr %retval, align 4
  ret i32 %3
}

; Function Attrs: mustprogress uwtable
define linkonce_odr hidden void @_ZSt4sortIPN3sat7literalEEvT_S3_(ptr noundef %__first, ptr noundef %__last) #5 comdat {
entry:
  %__first.addr = alloca ptr, align 8
  %__last.addr = alloca ptr, align 8
  store ptr %__first, ptr %__first.addr, align 8
  store ptr %__last, ptr %__last.addr, align 8
  %0 = load ptr, ptr %__first.addr, align 8
  %1 = load ptr, ptr %__last.addr, align 8
  call void @_ZN9__gnu_cxx5__ops16__iter_less_iterEv()
  call void @_ZSt6__sortIPN3sat7literalEN9__gnu_cxx5__ops15_Iter_less_iterEEvT_S6_T0_(ptr noundef %0, ptr noundef %1)
  ret void
}

; Function Attrs: mustprogress nounwind uwtable
define linkonce_odr hidden noundef ptr @_ZNK6vectorIN3sat7literalELb0EjE4dataEv(ptr noundef nonnull align 8 dereferenceable(8) %this) #4 comdat align 2 {
entry:
  %this.addr = alloca ptr, align 8
  store ptr %this, ptr %this.addr, align 8
  %this1 = load ptr, ptr %this.addr, align 8
  %m_data = getelementptr inbounds %class.vector.0, ptr %this1, i32 0, i32 0
  %0 = load ptr, ptr %m_data, align 8
  ret ptr %0
}

; Function Attrs: mustprogress nounwind uwtable
define linkonce_odr hidden noundef zeroext i1 @_ZNK3sat8aig_cuts4node6is_xorEv(ptr noundef nonnull align 8 dereferenceable(24) %this) #4 comdat align 2 {
entry:
  %this.addr = alloca ptr, align 8
  store ptr %this, ptr %this.addr, align 8
  %this1 = load ptr, ptr %this.addr, align 8
  %m_op = getelementptr inbounds %"class.sat::aig_cuts::node", ptr %this1, i32 0, i32 1
  %0 = load i32, ptr %m_op, align 4
  %cmp = icmp eq i32 %0, 3
  ret i1 %cmp
}

; Function Attrs: mustprogress nounwind uwtable
define linkonce_odr hidden noundef zeroext i1 @_ZNK3sat8aig_cuts4node6is_andEv(ptr noundef nonnull align 8 dereferenceable(24) %this) #4 comdat align 2 {
entry:
  %this.addr = alloca ptr, align 8
  store ptr %this, ptr %this.addr, align 8
  %this1 = load ptr, ptr %this.addr, align 8
  %m_op = getelementptr inbounds %"class.sat::aig_cuts::node", ptr %this1, i32 0, i32 1
  %0 = load i32, ptr %m_op, align 4
  %cmp = icmp eq i32 %0, 1
  ret i1 %cmp
}

; Function Attrs: mustprogress nounwind uwtable
define linkonce_odr hidden i32 @_ZN3satcoENS_7literalE(i32 %l.coerce) #4 comdat {
entry:
  %retval = alloca %"class.sat::literal", align 4
  %l = alloca %"class.sat::literal", align 4
  %coerce.dive = getelementptr inbounds %"class.sat::literal", ptr %l, i32 0, i32 0
  store i32 %l.coerce, ptr %coerce.dive, align 4
  %m_val = getelementptr inbounds %"class.sat::literal", ptr %l, i32 0, i32 0
  %0 = load i32, ptr %m_val, align 4
  %xor = xor i32 %0, 1
  %m_val1 = getelementptr inbounds %"class.sat::literal", ptr %l, i32 0, i32 0
  store i32 %xor, ptr %m_val1, align 4
  call void @llvm.memcpy.p0.p0.i64(ptr align 4 %retval, ptr align 4 %l, i64 4, i1 false)
  %coerce.dive2 = getelementptr inbounds %"class.sat::literal", ptr %retval, i32 0, i32 0
  %1 = load i32, ptr %coerce.dive2, align 4
  ret i32 %1
}

; Function Attrs: mustprogress nounwind uwtable
define linkonce_odr hidden noundef zeroext i1 @_ZNK3sat7literal4signEv(ptr noundef nonnull align 4 dereferenceable(4) %this) #4 comdat align 2 {
entry:
  %this.addr = alloca ptr, align 8
  store ptr %this, ptr %this.addr, align 8
  %this1 = load ptr, ptr %this.addr, align 8
  %m_val = getelementptr inbounds %"class.sat::literal", ptr %this1, i32 0, i32 0
  %0 = load i32, ptr %m_val, align 4
  %conv = zext i32 %0 to i64
  %and = and i64 %conv, 1
  %tobool = icmp ne i64 %and, 0
  ret i1 %tobool
}

; Function Attrs: mustprogress nounwind uwtable
define linkonce_odr hidden noundef zeroext i1 @_ZN3satneERKNS_7literalES2_(ptr noundef nonnull align 4 dereferenceable(4) %l1, ptr noundef nonnull align 4 dereferenceable(4) %l2) #4 comdat {
entry:
  %l1.addr = alloca ptr, align 8
  %l2.addr = alloca ptr, align 8
  store ptr %l1, ptr %l1.addr, align 8
  store ptr %l2, ptr %l2.addr, align 8
  %0 = load ptr, ptr %l1.addr, align 8
  %m_val = getelementptr inbounds %"class.sat::literal", ptr %0, i32 0, i32 0
  %1 = load i32, ptr %m_val, align 4
  %2 = load ptr, ptr %l2.addr, align 8
  %m_val1 = getelementptr inbounds %"class.sat::literal", ptr %2, i32 0, i32 0
  %3 = load i32, ptr %m_val1, align 4
  %cmp = icmp ne i32 %1, %3
  ret i1 %cmp
}

; Function Attrs: mustprogress uwtable
define linkonce_odr hidden i32 @_ZNK3sat8aig_cuts7to_rootixEj(ptr noundef nonnull align 8 dereferenceable(8) %this, i32 noundef %v) #5 comdat align 2 {
entry:
  %retval = alloca %"class.sat::literal", align 4
  %this.addr = alloca ptr, align 8
  %v.addr = alloca i32, align 4
  store ptr %this, ptr %this.addr, align 8
  store i32 %v, ptr %v.addr, align 4
  %this1 = load ptr, ptr %this.addr, align 8
  %0 = load i32, ptr %v.addr, align 4
  %m_to_root = getelementptr inbounds %"class.sat::aig_cuts::to_root", ptr %this1, i32 0, i32 0
  %call = call noundef i32 @_ZNK6vectorIN3sat7literalELb0EjE4sizeEv(ptr noundef nonnull align 8 dereferenceable(8) %m_to_root)
  %cmp = icmp ult i32 %0, %call
  br i1 %cmp, label %cond.true, label %cond.false

cond.true:                                        ; preds = %entry
  %m_to_root2 = getelementptr inbounds %"class.sat::aig_cuts::to_root", ptr %this1, i32 0, i32 0
  %1 = load i32, ptr %v.addr, align 4
  %call3 = call noundef nonnull align 4 dereferenceable(4) ptr @_ZNK6vectorIN3sat7literalELb0EjEixEj(ptr noundef nonnull align 8 dereferenceable(8) %m_to_root2, i32 noundef %1)
  call void @llvm.memcpy.p0.p0.i64(ptr align 4 %retval, ptr align 4 %call3, i64 4, i1 false)
  br label %cond.end

cond.false:                                       ; preds = %entry
  %2 = load i32, ptr %v.addr, align 4
  call void @_ZN3sat7literalC2Ejb(ptr noundef nonnull align 4 dereferenceable(4) %retval, i32 noundef %2, i1 noundef zeroext false)
  br label %cond.end

cond.end:                                         ; preds = %cond.false, %cond.true
  %coerce.dive = getelementptr inbounds %"class.sat::literal", ptr %retval, i32 0, i32 0
  %3 = load i32, ptr %coerce.dive, align 4
  ret i32 %3
}

; Function Attrs: mustprogress nounwind uwtable
define linkonce_odr hidden noundef i32 @_ZNK3sat7literal3varEv(ptr noundef nonnull align 4 dereferenceable(4) %this) #4 comdat align 2 {
entry:
  %this.addr = alloca ptr, align 8
  store ptr %this, ptr %this.addr, align 8
  %this1 = load ptr, ptr %this.addr, align 8
  %m_val = getelementptr inbounds %"class.sat::literal", ptr %this1, i32 0, i32 0
  %0 = load i32, ptr %m_val, align 4
  %shr = lshr i32 %0, 1
  ret i32 %shr
}

; Function Attrs: mustprogress nounwind uwtable
define linkonce_odr hidden noundef nonnull align 4 dereferenceable(4) ptr @_ZN6vectorIN3sat7literalELb0EjEixEj(ptr noundef nonnull align 8 dereferenceable(8) %this, i32 noundef %idx) #4 comdat align 2 {
entry:
  %this.addr = alloca ptr, align 8
  %idx.addr = alloca i32, align 4
  store ptr %this, ptr %this.addr, align 8
  store i32 %idx, ptr %idx.addr, align 4
  %this1 = load ptr, ptr %this.addr, align 8
  %m_data = getelementptr inbounds %class.vector.0, ptr %this1, i32 0, i32 0
  %0 = load ptr, ptr %m_data, align 8
  %1 = load i32, ptr %idx.addr, align 4
  %idxprom = zext i32 %1 to i64
  %arrayidx = getelementptr inbounds %"class.sat::literal", ptr %0, i64 %idxprom
  ret ptr %arrayidx
}

; Function Attrs: mustprogress nounwind uwtable
define linkonce_odr hidden noundef i32 @_ZNK3sat8aig_cuts4node6offsetEv(ptr noundef nonnull align 8 dereferenceable(24) %this) #4 comdat align 2 {
entry:
  %this.addr = alloca ptr, align 8
  store ptr %this, ptr %this.addr, align 8
  %this1 = load ptr, ptr %this.addr, align 8
  %m_offset = getelementptr inbounds %"class.sat::aig_cuts::node", ptr %this1, i32 0, i32 4
  %0 = load i32, ptr %m_offset, align 4
  ret i32 %0
}

; Function Attrs: mustprogress nounwind uwtable
define linkonce_odr hidden noundef i32 @_ZNK3sat8aig_cuts4node4sizeEv(ptr noundef nonnull align 8 dereferenceable(24) %this) #4 comdat align 2 {
entry:
  %this.addr = alloca ptr, align 8
  store ptr %this, ptr %this.addr, align 8
  %this1 = load ptr, ptr %this.addr, align 8
  %m_size = getelementptr inbounds %"class.sat::aig_cuts::node", ptr %this1, i32 0, i32 3
  %0 = load i32, ptr %m_size, align 8
  ret i32 %0
}

; Function Attrs: mustprogress uwtable
define hidden noundef zeroext i1 @_ZN3sat8aig_cuts11flush_rootsEjRKNS0_7to_rootERNS0_4nodeE(ptr noundef nonnull align 8 dereferenceable(480) %this, i32 noundef %var, ptr noundef nonnull align 8 dereferenceable(8) %to_root, ptr noundef nonnull align 8 dereferenceable(24) %n) #5 align 2 {
entry:
  %retval = alloca i1, align 1
  %this.addr = alloca ptr, align 8
  %var.addr = alloca i32, align 4
  %to_root.addr = alloca ptr, align 8
  %n.addr = alloca ptr, align 8
  %changed = alloca i8, align 1
  %i = alloca i32, align 4
  %lit = alloca ptr, align 8
  %r = alloca %"class.sat::literal", align 4
  %ref.tmp = alloca %"class.sat::literal", align 4
  %agg.tmp = alloca %"class.sat::literal", align 4
  store ptr %this, ptr %this.addr, align 8
  store i32 %var, ptr %var.addr, align 4
  store ptr %to_root, ptr %to_root.addr, align 8
  store ptr %n, ptr %n.addr, align 8
  %this1 = load ptr, ptr %this.addr, align 8
  store i8 0, ptr %changed, align 1
  store i32 0, ptr %i, align 4
  br label %for.cond

for.cond:                                         ; preds = %for.inc, %entry
  %0 = load i32, ptr %i, align 4
  %1 = load ptr, ptr %n.addr, align 8
  %call = call noundef i32 @_ZNK3sat8aig_cuts4node4sizeEv(ptr noundef nonnull align 8 dereferenceable(24) %1)
  %cmp = icmp ult i32 %0, %call
  br i1 %cmp, label %for.body, label %for.end

for.body:                                         ; preds = %for.cond
  %m_literals = getelementptr inbounds %"class.sat::aig_cuts", ptr %this1, i32 0, i32 3
  %2 = load ptr, ptr %n.addr, align 8
  %call2 = call noundef i32 @_ZNK3sat8aig_cuts4node6offsetEv(ptr noundef nonnull align 8 dereferenceable(24) %2)
  %3 = load i32, ptr %i, align 4
  %add = add i32 %call2, %3
  %call3 = call noundef nonnull align 4 dereferenceable(4) ptr @_ZN6vectorIN3sat7literalELb0EjEixEj(ptr noundef nonnull align 8 dereferenceable(8) %m_literals, i32 noundef %add)
  store ptr %call3, ptr %lit, align 8
  %4 = load ptr, ptr %to_root.addr, align 8
  %5 = load ptr, ptr %lit, align 8
  %call4 = call noundef i32 @_ZNK3sat7literal3varEv(ptr noundef nonnull align 4 dereferenceable(4) %5)
  %call5 = call i32 @_ZNK3sat8aig_cuts7to_rootixEj(ptr noundef nonnull align 8 dereferenceable(8) %4, i32 noundef %call4)
  %coerce.dive = getelementptr inbounds %"class.sat::literal", ptr %r, i32 0, i32 0
  store i32 %call5, ptr %coerce.dive, align 4
  %6 = load ptr, ptr %lit, align 8
  %call6 = call noundef zeroext i1 @_ZN3satneERKNS_7literalES2_(ptr noundef nonnull align 4 dereferenceable(4) %r, ptr noundef nonnull align 4 dereferenceable(4) %6)
  br i1 %call6, label %if.then, label %if.end

if.then:                                          ; preds = %for.body
  store i8 1, ptr %changed, align 1
  %7 = load ptr, ptr %lit, align 8
  %call7 = call noundef zeroext i1 @_ZNK3sat7literal4signEv(ptr noundef nonnull align 4 dereferenceable(4) %7)
  br i1 %call7, label %cond.true, label %cond.false

cond.true:                                        ; preds = %if.then
  call void @llvm.memcpy.p0.p0.i64(ptr align 4 %agg.tmp, ptr align 4 %r, i64 4, i1 false)
  %coerce.dive8 = getelementptr inbounds %"class.sat::literal", ptr %agg.tmp, i32 0, i32 0
  %8 = load i32, ptr %coerce.dive8, align 4
  %call9 = call i32 @_ZN3satcoENS_7literalE(i32 %8)
  %coerce.dive10 = getelementptr inbounds %"class.sat::literal", ptr %ref.tmp, i32 0, i32 0
  store i32 %call9, ptr %coerce.dive10, align 4
  br label %cond.end

cond.false:                                       ; preds = %if.then
  call void @llvm.memcpy.p0.p0.i64(ptr align 4 %ref.tmp, ptr align 4 %r, i64 4, i1 false)
  br label %cond.end

cond.end:                                         ; preds = %cond.false, %cond.true
  %9 = load ptr, ptr %lit, align 8
  call void @llvm.memcpy.p0.p0.i64(ptr align 4 %9, ptr align 4 %ref.tmp, i64 4, i1 false)
  br label %if.end

if.end:                                           ; preds = %cond.end, %for.body
  %10 = load ptr, ptr %lit, align 8
  %call11 = call noundef i32 @_ZNK3sat7literal3varEv(ptr noundef nonnull align 4 dereferenceable(4) %10)
  %11 = load i32, ptr %var.addr, align 4
  %cmp12 = icmp eq i32 %call11, %11
  br i1 %cmp12, label %if.then13, label %if.end14

if.then13:                                        ; preds = %if.end
  store i1 false, ptr %retval, align 1
  br label %return

if.end14:                                         ; preds = %if.end
  br label %for.inc

for.inc:                                          ; preds = %if.end14
  %12 = load i32, ptr %i, align 4
  %inc = add i32 %12, 1
  store i32 %inc, ptr %i, align 4
  br label %for.cond, !llvm.loop !21

for.end:                                          ; preds = %for.cond
  %13 = load i8, ptr %changed, align 1
  %tobool = trunc i8 %13 to i1
  br i1 %tobool, label %land.lhs.true, label %if.end29

land.lhs.true:                                    ; preds = %for.end
  %14 = load ptr, ptr %n.addr, align 8
  %call15 = call noundef zeroext i1 @_ZNK3sat8aig_cuts4node6is_andEv(ptr noundef nonnull align 8 dereferenceable(24) %14)
  br i1 %call15, label %if.then17, label %lor.lhs.false

lor.lhs.false:                                    ; preds = %land.lhs.true
  %15 = load ptr, ptr %n.addr, align 8
  %call16 = call noundef zeroext i1 @_ZNK3sat8aig_cuts4node6is_xorEv(ptr noundef nonnull align 8 dereferenceable(24) %15)
  br i1 %call16, label %if.then17, label %if.end29

if.then17:                                        ; preds = %lor.lhs.false, %land.lhs.true
  %m_literals18 = getelementptr inbounds %"class.sat::aig_cuts", ptr %this1, i32 0, i32 3
  %call19 = call noundef ptr @_ZNK6vectorIN3sat7literalELb0EjE4dataEv(ptr noundef nonnull align 8 dereferenceable(8) %m_literals18)
  %16 = load ptr, ptr %n.addr, align 8
  %call20 = call noundef i32 @_ZNK3sat8aig_cuts4node6offsetEv(ptr noundef nonnull align 8 dereferenceable(24) %16)
  %idx.ext = zext i32 %call20 to i64
  %add.ptr = getelementptr inbounds %"class.sat::literal", ptr %call19, i64 %idx.ext
  %m_literals21 = getelementptr inbounds %"class.sat::aig_cuts", ptr %this1, i32 0, i32 3
  %call22 = call noundef ptr @_ZNK6vectorIN3sat7literalELb0EjE4dataEv(ptr noundef nonnull align 8 dereferenceable(8) %m_literals21)
  %17 = load ptr, ptr %n.addr, align 8
  %call23 = call noundef i32 @_ZNK3sat8aig_cuts4node6offsetEv(ptr noundef nonnull align 8 dereferenceable(24) %17)
  %idx.ext24 = zext i32 %call23 to i64
  %add.ptr25 = getelementptr inbounds %"class.sat::literal", ptr %call22, i64 %idx.ext24
  %18 = load ptr, ptr %n.addr, align 8
  %call26 = call noundef i32 @_ZNK3sat8aig_cuts4node4sizeEv(ptr noundef nonnull align 8 dereferenceable(24) %18)
  %idx.ext27 = zext i32 %call26 to i64
  %add.ptr28 = getelementptr inbounds %"class.sat::literal", ptr %add.ptr25, i64 %idx.ext27
  call void @_ZSt4sortIPN3sat7literalEEvT_S3_(ptr noundef %add.ptr, ptr noundef %add.ptr28)
  br label %if.end29

if.end29:                                         ; preds = %if.then17, %lor.lhs.false, %for.end
  store i1 true, ptr %retval, align 1
  br label %return

return:                                           ; preds = %if.end29, %if.then13
  %19 = load i1, ptr %retval, align 1
  ret i1 %19
}