; Function Attrs: mustprogress uwtable
define hidden noundef zeroext i1 @_ZN3sat8aig_cuts11flush_rootsEjRKNS0_7to_rootERNS0_4nodeE(ptr nocapture noundef nonnull readonly align 8 dereferenceable(480) %this, i32 noundef %var, ptr nocapture noundef nonnull readonly align 8 dereferenceable(8) %to_root, ptr nocapture noundef nonnull readonly align 8 dereferenceable(24) %n) local_unnamed_addr #3 align 2 {
entry:
  %m_size.i = getelementptr inbounds i8, ptr %n, i64 16
  %0 = load i32, ptr %m_size.i, align 8
  %cmp28 = icmp eq i32 %0, 0
  br i1 %cmp28, label %return, label %for.body.lr.ph

for.body.lr.ph:                                   ; preds = %entry
  %m_literals = getelementptr inbounds i8, ptr %this, i64 32
  %m_offset.i = getelementptr inbounds i8, ptr %n, i64 20
  br label %for.body

for.cond:                                         ; preds = %if.end
  %inc = add nuw i32 %i.029, 1
  %1 = load i32, ptr %m_size.i, align 8
  %cmp.not = icmp ult i32 %inc, %1
  br i1 %cmp.not, label %for.body, label %for.end, !llvm.loop !11

for.body:                                         ; preds = %for.body.lr.ph, %for.cond
  %changed.030 = phi i8 [ 0, %for.body.lr.ph ], [ %changed.1, %for.cond ]
  %i.029 = phi i32 [ 0, %for.body.lr.ph ], [ %inc, %for.cond ]
  %2 = load i32, ptr %m_offset.i, align 4
  %add = add i32 %2, %i.029
  %3 = load ptr, ptr %m_literals, align 8
  %idxprom.i = zext i32 %add to i64
  %arrayidx.i = getelementptr inbounds %"class.sat::literal", ptr %3, i64 %idxprom.i
  %4 = load i32, ptr %arrayidx.i, align 4
  %shr.i = lshr i32 %4, 1
  %5 = load ptr, ptr %to_root, align 8
  %cmp.i.i = icmp eq ptr %5, null
  br i1 %cmp.i.i, label %cond.false.i, label %_ZNK6vectorIN3sat7literalELb0EjE4sizeEv.exit.i

_ZNK6vectorIN3sat7literalELb0EjE4sizeEv.exit.i:   ; preds = %for.body
  %arrayidx.i.i = getelementptr inbounds i8, ptr %5, i64 -4
  %6 = load i32, ptr %arrayidx.i.i, align 4
  %cmp.i = icmp ugt i32 %6, %shr.i
  br i1 %cmp.i, label %cond.true.i, label %cond.false.i

cond.true.i:                                      ; preds = %_ZNK6vectorIN3sat7literalELb0EjE4sizeEv.exit.i
  %idxprom.i.i = zext nneg i32 %shr.i to i64
  %arrayidx.i3.i = getelementptr inbounds %"class.sat::literal", ptr %5, i64 %idxprom.i.i
  %7 = load i32, ptr %arrayidx.i3.i, align 4
  br label %_ZNK3sat8aig_cuts7to_rootixEj.exit

cond.false.i:                                     ; preds = %_ZNK6vectorIN3sat7literalELb0EjE4sizeEv.exit.i, %for.body
  %shl.i.i = and i32 %4, -2
  br label %_ZNK3sat8aig_cuts7to_rootixEj.exit

_ZNK3sat8aig_cuts7to_rootixEj.exit:               ; preds = %cond.true.i, %cond.false.i
  %retval.sroa.0.0.i = phi i32 [ %7, %cond.true.i ], [ %shl.i.i, %cond.false.i ]
  %cmp.i14.not = icmp eq i32 %retval.sroa.0.0.i, %4
  br i1 %cmp.i14.not, label %if.end, label %if.then

if.then:                                          ; preds = %_ZNK3sat8aig_cuts7to_rootixEj.exit
  %8 = and i32 %4, 1
  %spec.select = xor i32 %retval.sroa.0.0.i, %8
  store i32 %spec.select, ptr %arrayidx.i, align 4
  br label %if.end

if.end:                                           ; preds = %if.then, %_ZNK3sat8aig_cuts7to_rootixEj.exit
  %9 = phi i32 [ %spec.select, %if.then ], [ %4, %_ZNK3sat8aig_cuts7to_rootixEj.exit ]
  %changed.1 = phi i8 [ 1, %if.then ], [ %changed.030, %_ZNK3sat8aig_cuts7to_rootixEj.exit ]
  %shr.i15 = lshr i32 %9, 1
  %cmp12 = icmp eq i32 %shr.i15, %var
  br i1 %cmp12, label %return, label %for.cond

for.end:                                          ; preds = %for.cond
  %10 = and i8 %changed.1, 1
  %11 = icmp eq i8 %10, 0
  %12 = zext i32 %1 to i64
  br i1 %11, label %return, label %land.lhs.true

land.lhs.true:                                    ; preds = %for.end
  %m_op.i = getelementptr inbounds i8, ptr %n, i64 4
  %13 = load i32, ptr %m_op.i, align 4
  switch i32 %13, label %return [
    i32 1, label %if.then17
    i32 3, label %if.then17
  ]

if.then17:                                        ; preds = %land.lhs.true, %land.lhs.true
  %m_literals18 = getelementptr inbounds i8, ptr %this, i64 32
  %14 = load ptr, ptr %m_literals18, align 8
  %m_offset.i19 = getelementptr inbounds i8, ptr %n, i64 20
  %15 = load i32, ptr %m_offset.i19, align 4
  %idx.ext = zext i32 %15 to i64
  %add.ptr = getelementptr inbounds %"class.sat::literal", ptr %14, i64 %idx.ext
  %add.ptr28 = getelementptr inbounds %"class.sat::literal", ptr %add.ptr, i64 %12
  tail call void @_ZSt6__sortIPN3sat7literalEN9__gnu_cxx5__ops15_Iter_less_iterEEvT_S6_T0_(ptr noundef %add.ptr, ptr noundef %add.ptr28)
  br label %return

return:                                           ; preds = %if.end, %entry, %land.lhs.true, %for.end, %if.then17
  %cmp25 = phi i1 [ true, %land.lhs.true ], [ true, %for.end ], [ true, %if.then17 ], [ true, %entry ], [ false, %if.end ]
  ret i1 %cmp25
}